; Function Attrs: mustprogress uwtable
define noundef zeroext i1 @_ZN5ImGui13SliderScalarNEPKciPviPKvS4_S1_i(ptr noundef %0, i32 noundef %1, ptr noundef %2, i32 noundef %3, ptr noundef %4, ptr noundef %5, ptr noundef %6, i32 noundef %7) local_unnamed_addr #6 {
  %9 = load ptr, ptr @GImGui, align 8, !tbaa !3
  %10 = getelementptr inbounds nuw i8, ptr %9, i64 5016
  %11 = load ptr, ptr %10, align 8, !tbaa !8
  %12 = getelementptr inbounds nuw i8, ptr %11, i64 204
  store i8 1, ptr %12, align 4, !tbaa !130
  %13 = getelementptr inbounds nuw i8, ptr %11, i64 207
  %14 = load i8, ptr %13, align 1, !tbaa !152, !range !153, !noundef !154
  %15 = trunc nuw i8 %14 to i1
  br i1 %15, label %36, label %16

16:                                               ; preds = %8
  tail call void @_ZN5ImGui10BeginGroupEv()
  tail call void @_ZN5ImGui6PushIDEPKc(ptr noundef %0)
  %17 = tail call noundef float @_ZN5ImGui13CalcItemWidthEv()
  tail call void @_ZN5ImGui20PushMultiItemsWidthsEif(i32 noundef %3, float noundef %17)
  %18 = sext i32 %1 to i64
  %19 = getelementptr inbounds [12 x %struct.ImGuiDataTypeInfo], ptr @_ZL13GDataTypeInfo, i64 0, i64 %18
  %20 = load i64, ptr %19, align 16, !tbaa !347
  %21 = icmp sgt i32 %3, 0
  br i1 %21, label %.lr.ph, label %._crit_edge

.lr.ph:                                           ; preds = %16
  %22 = getelementptr inbounds nuw i8, ptr %9, i64 3184
  br label %24

._crit_edge:                                      ; preds = %27, %16
  %.028.lcssa = phi i1 [ false, %16 ], [ %29, %27 ]
  tail call void @_ZN5ImGui5PopIDEv()
  %23 = tail call noundef ptr @_ZN5ImGui19FindRenderedTextEndEPKcS1_(ptr noundef %0, ptr noundef null)
  %.not = icmp eq ptr %0, %23
  br i1 %.not, label %35, label %32

24:                                               ; preds = %.lr.ph, %27
  %.02634 = phi i32 [ 0, %.lr.ph ], [ %31, %27 ]
  %.02733 = phi ptr [ %2, %.lr.ph ], [ %30, %27 ]
  %.02832 = phi i1 [ false, %.lr.ph ], [ %29, %27 ]
  tail call void @_ZN5ImGui6PushIDEi(i32 noundef %.02634)
  %.not31 = icmp eq i32 %.02634, 0
  br i1 %.not31, label %27, label %25

25:                                               ; preds = %24
  %26 = load float, ptr %22, align 8, !tbaa !364
  tail call void @_ZN5ImGui8SameLineEff(float noundef 0.000000e+00, float noundef %26)
  br label %27

27:                                               ; preds = %25, %24
  %28 = tail call noundef zeroext i1 @_ZN5ImGui12SliderScalarEPKciPvPKvS4_S1_i(ptr noundef nonnull @.str, i32 noundef %1, ptr noundef %.02733, ptr noundef %4, ptr noundef %5, ptr noundef %6, i32 noundef %7)
  %29 = or i1 %.02832, %28
  tail call void @_ZN5ImGui5PopIDEv()
  tail call void @_ZN5ImGui12PopItemWidthEv()
  %30 = getelementptr inbounds nuw i8, ptr %.02733, i64 %20
  %31 = add nuw nsw i32 %.02634, 1
  %exitcond.not = icmp eq i32 %31, %3
  br i1 %exitcond.not, label %._crit_edge, label %24, !llvm.loop !371

32:                                               ; preds = %._crit_edge
  %33 = getelementptr inbounds nuw i8, ptr %9, i64 3184
  %34 = load float, ptr %33, align 8, !tbaa !364
  tail call void @_ZN5ImGui8SameLineEff(float noundef 0.000000e+00, float noundef %34)
  tail call void @_ZN5ImGui6TextExEPKcS1_i(ptr noundef %0, ptr noundef %23, i32 noundef 0)
  br label %35

35:                                               ; preds = %32, %._crit_edge
  tail call void @_ZN5ImGui8EndGroupEv()
  br label %36

36:                                               ; preds = %8, %35
  %.0 = phi i1 [ %.028.lcssa, %35 ], [ false, %8 ]
  ret i1 %.0
}